target datalayout = "e-m:e-p270:32:32-p271:32:32-p272:64:64-i64:64-i128:128-f80:128-n8:16:32:64-S128"
target triple = "x86_64-pc-linux-gnu"

%struct._fvalue_t = type { ptr, %union.anon.1 }
%union.anon.1 = type { %struct._protocol_value_t }
%struct._protocol_value_t = type { ptr, i32, ptr, i8 }
%struct.ipv6_addr_and_prefix = type { %struct.e_in6_addr, i32 }
%struct.e_in6_addr = type { [16 x i8] }

@.str.5 = private unnamed_addr constant [6 x i8] c"%s/%u\00", align 1

; Function Attrs: null_pointer_is_valid sspstrong uwtable
define internal ptr @ipv6_to_repr(ptr noundef %0, ptr noundef %1, i32 noundef %2, i32 noundef %3) #0 {
  %5 = alloca ptr, align 8
  %6 = alloca ptr, align 8
  %7 = alloca i32, align 4
  %8 = alloca i32, align 4
  %9 = alloca [46 x i8], align 16
  %10 = alloca ptr, align 8
  store ptr %0, ptr %5, align 8
  store ptr %1, ptr %6, align 8
  store i32 %2, ptr %7, align 4
  store i32 %3, ptr %8, align 4
  call void @llvm.lifetime.start.p0(i64 46, ptr %9) #7
  call void @llvm.lifetime.start.p0(i64 8, ptr %10) #7
  %11 = load ptr, ptr %6, align 8
  %12 = getelementptr inbounds nuw %struct._fvalue_t, ptr %11, i32 0, i32 1
  %13 = getelementptr inbounds nuw %struct.ipv6_addr_and_prefix, ptr %12, i32 0, i32 0
  %14 = getelementptr inbounds [46 x i8], ptr %9, i64 0, i64 0
  call void @ip6_to_str_buf(ptr noundef %13, ptr noundef %14, i64 noundef 46)
  %15 = load ptr, ptr %6, align 8
  %16 = getelementptr inbounds nuw %struct._fvalue_t, ptr %15, i32 0, i32 1
  %17 = getelementptr inbounds nuw %struct.ipv6_addr_and_prefix, ptr %16, i32 0, i32 1
  %18 = load i32, ptr %17, align 8
  %19 = icmp ne i32 %18, 0
  br i1 %19, label %20, label %34

20:                                               ; preds = %4
  %21 = load ptr, ptr %6, align 8
  %22 = getelementptr inbounds nuw %struct._fvalue_t, ptr %21, i32 0, i32 1
  %23 = getelementptr inbounds nuw %struct.ipv6_addr_and_prefix, ptr %22, i32 0, i32 1
  %24 = load i32, ptr %23, align 8
  %25 = icmp ne i32 %24, 128
  br i1 %25, label %26, label %34

26:                                               ; preds = %20
  %27 = load ptr, ptr %5, align 8
  %28 = getelementptr inbounds [46 x i8], ptr %9, i64 0, i64 0
  %29 = load ptr, ptr %6, align 8
  %30 = getelementptr inbounds nuw %struct._fvalue_t, ptr %29, i32 0, i32 1
  %31 = getelementptr inbounds nuw %struct.ipv6_addr_and_prefix, ptr %30, i32 0, i32 1
  %32 = load i32, ptr %31, align 8
  %33 = call noalias ptr (ptr, ptr, ...) @wmem_strdup_printf(ptr noundef %27, ptr noundef @.str.5, ptr noundef %28, i32 noundef %32)
  store ptr %33, ptr %10, align 8
  br label %38

34:                                               ; preds = %20, %4
  %35 = load ptr, ptr %5, align 8
  %36 = getelementptr inbounds [46 x i8], ptr %9, i64 0, i64 0
  %37 = call noalias ptr @wmem_strdup(ptr noundef %35, ptr noundef %36)
  store ptr %37, ptr %10, align 8
  br label %38

38:                                               ; preds = %34, %26
  %39 = load ptr, ptr %10, align 8
  call void @llvm.lifetime.end.p0(i64 8, ptr %10) #7
  call void @llvm.lifetime.end.p0(i64 46, ptr %9) #7
  ret ptr %39
}