; Function Attrs: null_pointer_is_valid sspstrong uwtable
define internal noalias ptr @ipv6_to_repr(ptr noundef %0, ptr noundef %1, i32 %2, i32 %3) #0 {
  %5 = alloca [46 x i8], align 16
  call void @llvm.lifetime.start.p0(i64 46, ptr nonnull %5) #12
  %6 = getelementptr inbounds nuw i8, ptr %1, i64 8
  call void @ip6_to_str_buf(ptr noundef nonnull %6, ptr noundef nonnull %5, i64 noundef 46)
  %7 = getelementptr inbounds nuw i8, ptr %1, i64 24
  %8 = load i32, ptr %7, align 8
  switch i32 %8, label %9 [
    i32 0, label %11
    i32 128, label %11
  ]

9:                                                ; preds = %4
  %10 = call noalias ptr (ptr, ptr, ...) @wmem_strdup_printf(ptr noundef %0, ptr noundef nonnull @.str.5, ptr noundef nonnull %5, i32 noundef %8)
  br label %13

11:                                               ; preds = %4, %4
  %12 = call noalias ptr @wmem_strdup(ptr noundef %0, ptr noundef nonnull %5)
  br label %13

13:                                               ; preds = %11, %9
  %.0 = phi ptr [ %10, %9 ], [ %12, %11 ]
  call void @llvm.lifetime.end.p0(i64 46, ptr nonnull %5) #12
  ret ptr %.0
}